target datalayout = "e-m:e-p270:32:32-p271:32:32-p272:64:64-i64:64-i128:128-f80:128-n8:16:32:64-S128"
target triple = "x86_64-pc-linux-gnu"

%struct.PyCompilerFlags = type { i32, i32 }
%struct._PyCompiler = type { ptr, ptr, %struct._PyFutureFeatures, %struct.PyCompilerFlags, i32, i32, ptr, ptr, ptr, i8 }
%struct._PyFutureFeatures = type { i32, %struct._Py_SourceLocation }
%struct._Py_SourceLocation = type { i32, i32, i32, i32 }
%struct.compiler_unit = type { ptr, i32, ptr, ptr, ptr, ptr, i32, i32, [21 x %struct._PyCompile_FBlockInfo], %struct._PyCompile_CodeUnitMetadata }
%struct._PyCompile_FBlockInfo = type { i32, %struct._PyJumpTargetLabel, %struct._Py_SourceLocation, %struct._PyJumpTargetLabel, ptr }
%struct._PyJumpTargetLabel = type { i32 }
%struct._PyCompile_CodeUnitMetadata = type { ptr, ptr, ptr, ptr, ptr, ptr, ptr, ptr, i64, i64, i64, i32 }

@.str.4 = private unnamed_addr constant [34 x i8] c"too many statically nested blocks\00", align 1

; Function Attrs: nounwind uwtable
define hidden i32 @_PyCompile_PushFBlock(ptr noundef %0, i64 %1, i64 %2, i32 noundef %3, i32 %4, i32 %5, ptr noundef %6) #0 {
  %8 = alloca i32, align 4
  %9 = alloca %struct._Py_SourceLocation, align 4
  %10 = alloca %struct._PyJumpTargetLabel, align 4
  %11 = alloca %struct._PyJumpTargetLabel, align 4
  %12 = alloca ptr, align 8
  %13 = alloca i32, align 4
  %14 = alloca ptr, align 8
  %15 = alloca ptr, align 8
  %16 = alloca i32, align 4
  %17 = getelementptr inbounds nuw { i64, i64 }, ptr %9, i32 0, i32 0
  store i64 %1, ptr %17, align 4
  %18 = getelementptr inbounds nuw { i64, i64 }, ptr %9, i32 0, i32 1
  store i64 %2, ptr %18, align 4
  %19 = getelementptr inbounds nuw %struct._PyJumpTargetLabel, ptr %10, i32 0, i32 0
  store i32 %4, ptr %19, align 4
  %20 = getelementptr inbounds nuw %struct._PyJumpTargetLabel, ptr %11, i32 0, i32 0
  store i32 %5, ptr %20, align 4
  store ptr %0, ptr %12, align 8, !tbaa !4
  store i32 %3, ptr %13, align 4, !tbaa !50
  store ptr %6, ptr %14, align 8, !tbaa !42
  call void @llvm.lifetime.start.p0(i64 8, ptr %15) #8
  %21 = load ptr, ptr %12, align 8, !tbaa !4
  %22 = getelementptr inbounds nuw %struct._PyCompiler, ptr %21, i32 0, i32 7
  %23 = load ptr, ptr %22, align 8, !tbaa !48
  %24 = getelementptr inbounds nuw %struct.compiler_unit, ptr %23, i32 0, i32 6
  %25 = load i32, ptr %24, align 8, !tbaa !66
  %26 = icmp sge i32 %25, 21
  br i1 %26, label %27, label %34

27:                                               ; preds = %7
  %28 = load ptr, ptr %12, align 8, !tbaa !4
  %29 = getelementptr inbounds nuw { i64, i64 }, ptr %9, i32 0, i32 0
  %30 = load i64, ptr %29, align 4
  %31 = getelementptr inbounds nuw { i64, i64 }, ptr %9, i32 0, i32 1
  %32 = load i64, ptr %31, align 4
  %33 = call i32 (ptr, i64, i64, ptr, ...) @_PyCompile_Error(ptr noundef %28, i64 %30, i64 %32, ptr noundef @.str.4)
  store i32 %33, ptr %8, align 4
  store i32 1, ptr %16, align 4
  br label %59

34:                                               ; preds = %7
  %35 = load ptr, ptr %12, align 8, !tbaa !4
  %36 = getelementptr inbounds nuw %struct._PyCompiler, ptr %35, i32 0, i32 7
  %37 = load ptr, ptr %36, align 8, !tbaa !48
  %38 = getelementptr inbounds nuw %struct.compiler_unit, ptr %37, i32 0, i32 8
  %39 = load ptr, ptr %12, align 8, !tbaa !4
  %40 = getelementptr inbounds nuw %struct._PyCompiler, ptr %39, i32 0, i32 7
  %41 = load ptr, ptr %40, align 8, !tbaa !48
  %42 = getelementptr inbounds nuw %struct.compiler_unit, ptr %41, i32 0, i32 6
  %43 = load i32, ptr %42, align 8, !tbaa !66
  %44 = add i32 %43, 1
  store i32 %44, ptr %42, align 8, !tbaa !66
  %45 = sext i32 %43 to i64
  %46 = getelementptr [21 x %struct._PyCompile_FBlockInfo], ptr %38, i64 0, i64 %45
  store ptr %46, ptr %15, align 8, !tbaa !42
  %47 = load i32, ptr %13, align 4, !tbaa !50
  %48 = load ptr, ptr %15, align 8, !tbaa !42
  %49 = getelementptr inbounds nuw %struct._PyCompile_FBlockInfo, ptr %48, i32 0, i32 0
  store i32 %47, ptr %49, align 8, !tbaa !86
  %50 = load ptr, ptr %15, align 8, !tbaa !42
  %51 = getelementptr inbounds nuw %struct._PyCompile_FBlockInfo, ptr %50, i32 0, i32 1
  call void @llvm.memcpy.p0.p0.i64(ptr align 4 %51, ptr align 4 %10, i64 4, i1 false), !tbaa.struct !89
  %52 = load ptr, ptr %15, align 8, !tbaa !42
  %53 = getelementptr inbounds nuw %struct._PyCompile_FBlockInfo, ptr %52, i32 0, i32 2
  call void @llvm.memcpy.p0.p0.i64(ptr align 8 %53, ptr align 4 %9, i64 16, i1 false), !tbaa.struct !90
  %54 = load ptr, ptr %15, align 8, !tbaa !42
  %55 = getelementptr inbounds nuw %struct._PyCompile_FBlockInfo, ptr %54, i32 0, i32 3
  call void @llvm.memcpy.p0.p0.i64(ptr align 8 %55, ptr align 4 %11, i64 4, i1 false), !tbaa.struct !89
  %56 = load ptr, ptr %14, align 8, !tbaa !42
  %57 = load ptr, ptr %15, align 8, !tbaa !42
  %58 = getelementptr inbounds nuw %struct._PyCompile_FBlockInfo, ptr %57, i32 0, i32 4
  store ptr %56, ptr %58, align 8, !tbaa !91
  store i32 0, ptr %8, align 4
  store i32 1, ptr %16, align 4
  br label %59

59:                                               ; preds = %34, %27
  call void @llvm.lifetime.end.p0(i64 8, ptr %15) #8
  %60 = load i32, ptr %8, align 4
  ret i32 %60
}