; Function Attrs: nounwind uwtable
define hidden range(i32 -1, 1) i32 @_PyCompile_PushFBlock(ptr noundef readonly captures(none) %0, i64 %1, i64 %2, i32 noundef %3, i32 %4, i32 %5, ptr noundef %6) local_unnamed_addr #0 {
  %8 = getelementptr inbounds nuw i8, ptr %0, i64 64
  %9 = load ptr, ptr %8, align 8, !tbaa !42
  %10 = getelementptr inbounds nuw i8, ptr %9, i64 48
  %11 = load i32, ptr %10, align 8, !tbaa !59
  %12 = icmp sgt i32 %11, 20
  br i1 %12, label %13, label %15

13:                                               ; preds = %7
  %14 = tail call i32 (ptr, i64, i64, ptr, ...) @_PyCompile_Error(ptr noundef nonnull %0, i64 %1, i64 %2, ptr noundef nonnull @.str.4)
  br label %24

15:                                               ; preds = %7
  %16 = getelementptr inbounds nuw i8, ptr %9, i64 56
  %17 = add nsw i32 %11, 1
  store i32 %17, ptr %10, align 8, !tbaa !59
  %18 = sext i32 %11 to i64
  %19 = getelementptr [21 x %struct._PyCompile_FBlockInfo], ptr %16, i64 0, i64 %18
  store i32 %3, ptr %19, align 8, !tbaa !73
  %20 = getelementptr inbounds nuw i8, ptr %19, i64 4
  store i32 %4, ptr %20, align 4, !tbaa !46
  %21 = getelementptr inbounds nuw i8, ptr %19, i64 8
  store i64 %1, ptr %21, align 8
  %.sroa.3.0..sroa_idx = getelementptr inbounds nuw i8, ptr %19, i64 16
  store i64 %2, ptr %.sroa.3.0..sroa_idx, align 8
  %22 = getelementptr inbounds nuw i8, ptr %19, i64 24
  store i32 %5, ptr %22, align 8, !tbaa !46
  %23 = getelementptr inbounds nuw i8, ptr %19, i64 32
  store ptr %6, ptr %23, align 8, !tbaa !76
  br label %24

24:                                               ; preds = %15, %13
  %.0 = phi i32 [ -1, %13 ], [ 0, %15 ]
  ret i32 %.0
}